(dp1
S'output'
p2
S"<type 'exceptions.OSError'> [Errno 2] No such file or directory: '../databases'"
p3
sS'layer'
p4
S'/home/dawid/Desktop/iapt/web2py/applications/IAPTAssessment/controllers/default.py'
p5
sS'code'
p6
S'# -*- coding: utf-8 -*-\n# this file is released under public domain and you can use without limitations\n\n#########################################################################\n## This is a sample controller\n## - index is the default action of any application\n## - user is required for authentication and authorization\n## - download is for downloading files uploaded in the db (does streaming)\n#########################################################################\n\ndef index():\n    """\n    example action using the internationalization operator T and flash\n    rendered by views/default/index.html or views/generic.html\n\n    if you need a simple wiki simply replace the two lines below with:\n    return auth.wiki()\n    """\n    response.flash = T("Hello World")\n    return dict(message=T(\'Welcome to web2py!\'))\n\n\ndef user():\n    """\n    exposes:\n    http://..../[app]/default/user/login\n    http://..../[app]/default/user/logout\n    http://..../[app]/default/user/register\n    http://..../[app]/default/user/profile\n    http://..../[app]/default/user/retrieve_password\n    http://..../[app]/default/user/change_password\n    http://..../[app]/default/user/bulk_register\n    use @auth.requires_login()\n        @auth.requires_membership(\'group name\')\n        @auth.requires_permission(\'read\',\'table name\',record_id)\n    to decorate functions that need access control\n    also notice there is http://..../[app]/appadmin/manage/auth to allow administrator to manage users\n    """\n    return dict(form=auth())\n\n\n@cache.action()\ndef download():\n    """\n    allows downloading of uploaded files\n    http://..../[app]/default/download/[filename]\n    """\n    return response.download(request, db)\n\n\ndef call():\n    """\n    exposes services. for example:\n    http://..../[app]/default/call/jsonrpc\n    decorate with @services.jsonrpc the functions to expose\n    supports xml, json, xmlrpc, jsonrpc, amfrpc, rss, csv\n    """\n    return service()\n\ndef prepare():\n    #THIS IS FOR TESTING PURPOSES\n    #DELETES THE ENTIRE DATABASE\n    #####MAKE SURE YOU HAVE SIGNED OUT BEFORE RUNNING!\n    import shutil\n    import os\n    shutil.rmtree(\'../databases\')\n    os.makedirs(\'../databases\')\n    redirect(URL(\'setup\'))\n\nresponse._vars=response._caller(prepare)\n'
p7
sS'snapshot'
p8
(dp9
sS'traceback'
p10
S'Traceback (most recent call last):\n  File "/home/dawid/Desktop/iapt/web2py/gluon/restricted.py", line 227, in restricted\n    exec ccode in environment\n  File "/home/dawid/Desktop/iapt/web2py/applications/IAPTAssessment/controllers/default.py", line 70, in <module>\n  File "/home/dawid/Desktop/iapt/web2py/gluon/globals.py", line 412, in <lambda>\n    self._caller = lambda f: f()\n  File "/home/dawid/Desktop/iapt/web2py/applications/IAPTAssessment/controllers/default.py", line 66, in prepare\n    shutil.rmtree(\'../databases\')\n  File "/usr/lib/python2.7/shutil.py", line 239, in rmtree\n    onerror(os.listdir, path, sys.exc_info())\n  File "/usr/lib/python2.7/shutil.py", line 237, in rmtree\n    names = os.listdir(path)\nOSError: [Errno 2] No such file or directory: \'../databases\'\n'
p11
s.